target datalayout = "e-m:e-p270:32:32-p271:32:32-p272:64:64-i64:64-i128:128-f80:128-n8:16:32:64-S128"
target triple = "x86_64-pc-linux-gnu"

%struct.ecdsa_sig_st = type { ptr, ptr }

@.str = private unnamed_addr constant [124 x i8] c"generated/home/dtcxzyw/WorkSpace/Projects/compilers/llvm-opt-benchmark/bench/libquic/libquic/boringssl/crypto/ecdsa/ecdsa.c\00", align 1

; Function Attrs: nounwind uwtable
define hidden i32 @ECDSA_do_verify(ptr noundef %0, i64 noundef %1, ptr noundef %2, ptr noundef %3) #0 {
  %5 = alloca i32, align 4
  %6 = alloca ptr, align 8
  %7 = alloca i64, align 8
  %8 = alloca ptr, align 8
  %9 = alloca ptr, align 8
  %10 = alloca i32, align 4
  %11 = alloca ptr, align 8
  %12 = alloca ptr, align 8
  %13 = alloca ptr, align 8
  %14 = alloca ptr, align 8
  %15 = alloca ptr, align 8
  %16 = alloca ptr, align 8
  %17 = alloca ptr, align 8
  %18 = alloca ptr, align 8
  %19 = alloca i32, align 4
  %20 = alloca ptr, align 8
  store ptr %0, ptr %6, align 8, !tbaa !10
  store i64 %1, ptr %7, align 8, !tbaa !13
  store ptr %2, ptr %8, align 8, !tbaa !31
  store ptr %3, ptr %9, align 8, !tbaa !17
  call void @llvm.lifetime.start.p0(i64 4, ptr %10) #5
  store i32 0, ptr %10, align 4, !tbaa !6
  call void @llvm.lifetime.start.p0(i64 8, ptr %11) #5
  call void @llvm.lifetime.start.p0(i64 8, ptr %12) #5
  call void @llvm.lifetime.start.p0(i64 8, ptr %13) #5
  call void @llvm.lifetime.start.p0(i64 8, ptr %14) #5
  call void @llvm.lifetime.start.p0(i64 8, ptr %15) #5
  call void @llvm.lifetime.start.p0(i64 8, ptr %16) #5
  store ptr null, ptr %16, align 8, !tbaa !33
  call void @llvm.lifetime.start.p0(i64 8, ptr %17) #5
  call void @llvm.lifetime.start.p0(i64 8, ptr %18) #5
  %21 = load ptr, ptr %9, align 8, !tbaa !17
  %22 = call ptr @EC_KEY_get0_group(ptr noundef %21)
  store ptr %22, ptr %17, align 8, !tbaa !34
  %23 = icmp eq ptr %22, null
  br i1 %23, label %31, label %24

24:                                               ; preds = %4
  %25 = load ptr, ptr %9, align 8, !tbaa !17
  %26 = call ptr @EC_KEY_get0_public_key(ptr noundef %25)
  store ptr %26, ptr %18, align 8, !tbaa !33
  %27 = icmp eq ptr %26, null
  br i1 %27, label %31, label %28

28:                                               ; preds = %24
  %29 = load ptr, ptr %8, align 8, !tbaa !31
  %30 = icmp eq ptr %29, null
  br i1 %30, label %31, label %32

31:                                               ; preds = %28, %24, %4
  call void @ERR_put_error(i32 noundef 26, i32 noundef 0, i32 noundef 101, ptr noundef @.str, i32 noundef 151)
  store i32 0, ptr %5, align 4
  store i32 1, ptr %19, align 4
  br label %183

32:                                               ; preds = %28
  %33 = call ptr @BN_CTX_new()
  store ptr %33, ptr %11, align 8, !tbaa !35
  %34 = load ptr, ptr %11, align 8, !tbaa !35
  %35 = icmp ne ptr %34, null
  br i1 %35, label %37, label %36

36:                                               ; preds = %32
  call void @ERR_put_error(i32 noundef 26, i32 noundef 0, i32 noundef 65, ptr noundef @.str, i32 noundef 157)
  store i32 0, ptr %5, align 4
  store i32 1, ptr %19, align 4
  br label %183

37:                                               ; preds = %32
  %38 = load ptr, ptr %11, align 8, !tbaa !35
  call void @BN_CTX_start(ptr noundef %38)
  %39 = load ptr, ptr %11, align 8, !tbaa !35
  %40 = call ptr @BN_CTX_get(ptr noundef %39)
  store ptr %40, ptr %12, align 8, !tbaa !30
  %41 = load ptr, ptr %11, align 8, !tbaa !35
  %42 = call ptr @BN_CTX_get(ptr noundef %41)
  store ptr %42, ptr %13, align 8, !tbaa !30
  %43 = load ptr, ptr %11, align 8, !tbaa !35
  %44 = call ptr @BN_CTX_get(ptr noundef %43)
  store ptr %44, ptr %14, align 8, !tbaa !30
  %45 = load ptr, ptr %11, align 8, !tbaa !35
  %46 = call ptr @BN_CTX_get(ptr noundef %45)
  store ptr %46, ptr %15, align 8, !tbaa !30
  %47 = load ptr, ptr %12, align 8, !tbaa !30
  %48 = icmp eq ptr %47, null
  br i1 %48, label %58, label %49

49:                                               ; preds = %37
  %50 = load ptr, ptr %13, align 8, !tbaa !30
  %51 = icmp eq ptr %50, null
  br i1 %51, label %58, label %52

52:                                               ; preds = %49
  %53 = load ptr, ptr %14, align 8, !tbaa !30
  %54 = icmp eq ptr %53, null
  br i1 %54, label %58, label %55

55:                                               ; preds = %52
  %56 = load ptr, ptr %15, align 8, !tbaa !30
  %57 = icmp eq ptr %56, null
  br i1 %57, label %58, label %59

58:                                               ; preds = %55, %52, %49, %37
  call void @ERR_put_error(i32 noundef 26, i32 noundef 0, i32 noundef 3, ptr noundef @.str, i32 noundef 166)
  br label %178

59:                                               ; preds = %55
  %60 = load ptr, ptr %17, align 8, !tbaa !34
  %61 = call ptr @EC_GROUP_get0_order(ptr noundef %60)
  store ptr %61, ptr %20, align 8, !tbaa !30
  %62 = load ptr, ptr %8, align 8, !tbaa !31
  %63 = getelementptr inbounds nuw %struct.ecdsa_sig_st, ptr %62, i32 0, i32 0
  %64 = load ptr, ptr %63, align 8, !tbaa !37
  %65 = call i32 @BN_is_zero(ptr noundef %64)
  %66 = icmp ne i32 %65, 0
  br i1 %66, label %99, label %67

67:                                               ; preds = %59
  %68 = load ptr, ptr %8, align 8, !tbaa !31
  %69 = getelementptr inbounds nuw %struct.ecdsa_sig_st, ptr %68, i32 0, i32 0
  %70 = load ptr, ptr %69, align 8, !tbaa !37
  %71 = call i32 @BN_is_negative(ptr noundef %70)
  %72 = icmp ne i32 %71, 0
  br i1 %72, label %99, label %73

73:                                               ; preds = %67
  %74 = load ptr, ptr %8, align 8, !tbaa !31
  %75 = getelementptr inbounds nuw %struct.ecdsa_sig_st, ptr %74, i32 0, i32 0
  %76 = load ptr, ptr %75, align 8, !tbaa !37
  %77 = load ptr, ptr %20, align 8, !tbaa !30
  %78 = call i32 @BN_ucmp(ptr noundef %76, ptr noundef %77)
  %79 = icmp sge i32 %78, 0
  br i1 %79, label %99, label %80

80:                                               ; preds = %73
  %81 = load ptr, ptr %8, align 8, !tbaa !31
  %82 = getelementptr inbounds nuw %struct.ecdsa_sig_st, ptr %81, i32 0, i32 1
  %83 = load ptr, ptr %82, align 8, !tbaa !39
  %84 = call i32 @BN_is_zero(ptr noundef %83)
  %85 = icmp ne i32 %84, 0
  br i1 %85, label %99, label %86

86:                                               ; preds = %80
  %87 = load ptr, ptr %8, align 8, !tbaa !31
  %88 = getelementptr inbounds nuw %struct.ecdsa_sig_st, ptr %87, i32 0, i32 1
  %89 = load ptr, ptr %88, align 8, !tbaa !39
  %90 = call i32 @BN_is_negative(ptr noundef %89)
  %91 = icmp ne i32 %90, 0
  br i1 %91, label %99, label %92

92:                                               ; preds = %86
  %93 = load ptr, ptr %8, align 8, !tbaa !31
  %94 = getelementptr inbounds nuw %struct.ecdsa_sig_st, ptr %93, i32 0, i32 1
  %95 = load ptr, ptr %94, align 8, !tbaa !39
  %96 = load ptr, ptr %20, align 8, !tbaa !30
  %97 = call i32 @BN_ucmp(ptr noundef %95, ptr noundef %96)
  %98 = icmp sge i32 %97, 0
  br i1 %98, label %99, label %100

99:                                               ; preds = %92, %86, %80, %73, %67, %59
  call void @ERR_put_error(i32 noundef 26, i32 noundef 0, i32 noundef 100, ptr noundef @.str, i32 noundef 174)
  store i32 0, ptr %10, align 4, !tbaa !6
  br label %178

100:                                              ; preds = %92
  %101 = load ptr, ptr %13, align 8, !tbaa !30
  %102 = load ptr, ptr %8, align 8, !tbaa !31
  %103 = getelementptr inbounds nuw %struct.ecdsa_sig_st, ptr %102, i32 0, i32 1
  %104 = load ptr, ptr %103, align 8, !tbaa !39
  %105 = load ptr, ptr %20, align 8, !tbaa !30
  %106 = load ptr, ptr %11, align 8, !tbaa !35
  %107 = call ptr @BN_mod_inverse(ptr noundef %101, ptr noundef %104, ptr noundef %105, ptr noundef %106)
  %108 = icmp ne ptr %107, null
  br i1 %108, label %110, label %109

109:                                              ; preds = %100
  call void @ERR_put_error(i32 noundef 26, i32 noundef 0, i32 noundef 3, ptr noundef @.str, i32 noundef 180)
  br label %178

110:                                              ; preds = %100
  %111 = load ptr, ptr %14, align 8, !tbaa !30
  %112 = load ptr, ptr %6, align 8, !tbaa !10
  %113 = load i64, ptr %7, align 8, !tbaa !13
  %114 = load ptr, ptr %20, align 8, !tbaa !30
  %115 = call i32 @digest_to_bn(ptr noundef %111, ptr noundef %112, i64 noundef %113, ptr noundef %114)
  %116 = icmp ne i32 %115, 0
  br i1 %116, label %118, label %117

117:                                              ; preds = %110
  br label %178

118:                                              ; preds = %110
  %119 = load ptr, ptr %12, align 8, !tbaa !30
  %120 = load ptr, ptr %14, align 8, !tbaa !30
  %121 = load ptr, ptr %13, align 8, !tbaa !30
  %122 = load ptr, ptr %20, align 8, !tbaa !30
  %123 = load ptr, ptr %11, align 8, !tbaa !35
  %124 = call i32 @BN_mod_mul(ptr noundef %119, ptr noundef %120, ptr noundef %121, ptr noundef %122, ptr noundef %123)
  %125 = icmp ne i32 %124, 0
  br i1 %125, label %127, label %126

126:                                              ; preds = %118
  call void @ERR_put_error(i32 noundef 26, i32 noundef 0, i32 noundef 3, ptr noundef @.str, i32 noundef 188)
  br label %178

127:                                              ; preds = %118
  %128 = load ptr, ptr %13, align 8, !tbaa !30
  %129 = load ptr, ptr %8, align 8, !tbaa !31
  %130 = getelementptr inbounds nuw %struct.ecdsa_sig_st, ptr %129, i32 0, i32 0
  %131 = load ptr, ptr %130, align 8, !tbaa !37
  %132 = load ptr, ptr %13, align 8, !tbaa !30
  %133 = load ptr, ptr %20, align 8, !tbaa !30
  %134 = load ptr, ptr %11, align 8, !tbaa !35
  %135 = call i32 @BN_mod_mul(ptr noundef %128, ptr noundef %131, ptr noundef %132, ptr noundef %133, ptr noundef %134)
  %136 = icmp ne i32 %135, 0
  br i1 %136, label %138, label %137

137:                                              ; preds = %127
  call void @ERR_put_error(i32 noundef 26, i32 noundef 0, i32 noundef 3, ptr noundef @.str, i32 noundef 193)
  br label %178

138:                                              ; preds = %127
  %139 = load ptr, ptr %17, align 8, !tbaa !34
  %140 = call ptr @EC_POINT_new(ptr noundef %139)
  store ptr %140, ptr %16, align 8, !tbaa !33
  %141 = load ptr, ptr %16, align 8, !tbaa !33
  %142 = icmp eq ptr %141, null
  br i1 %142, label %143, label %144

143:                                              ; preds = %138
  call void @ERR_put_error(i32 noundef 26, i32 noundef 0, i32 noundef 65, ptr noundef @.str, i32 noundef 199)
  br label %178

144:                                              ; preds = %138
  %145 = load ptr, ptr %17, align 8, !tbaa !34
  %146 = load ptr, ptr %16, align 8, !tbaa !33
  %147 = load ptr, ptr %12, align 8, !tbaa !30
  %148 = load ptr, ptr %18, align 8, !tbaa !33
  %149 = load ptr, ptr %13, align 8, !tbaa !30
  %150 = load ptr, ptr %11, align 8, !tbaa !35
  %151 = call i32 @EC_POINT_mul(ptr noundef %145, ptr noundef %146, ptr noundef %147, ptr noundef %148, ptr noundef %149, ptr noundef %150)
  %152 = icmp ne i32 %151, 0
  br i1 %152, label %154, label %153

153:                                              ; preds = %144
  call void @ERR_put_error(i32 noundef 26, i32 noundef 0, i32 noundef 15, ptr noundef @.str, i32 noundef 203)
  br label %178

154:                                              ; preds = %144
  %155 = load ptr, ptr %17, align 8, !tbaa !34
  %156 = load ptr, ptr %16, align 8, !tbaa !33
  %157 = load ptr, ptr %15, align 8, !tbaa !30
  %158 = load ptr, ptr %11, align 8, !tbaa !35
  %159 = call i32 @EC_POINT_get_affine_coordinates_GFp(ptr noundef %155, ptr noundef %156, ptr noundef %157, ptr noundef null, ptr noundef %158)
  %160 = icmp ne i32 %159, 0
  br i1 %160, label %162, label %161

161:                                              ; preds = %154
  call void @ERR_put_error(i32 noundef 26, i32 noundef 0, i32 noundef 15, ptr noundef @.str, i32 noundef 207)
  br label %178

162:                                              ; preds = %154
  %163 = load ptr, ptr %12, align 8, !tbaa !30
  %164 = load ptr, ptr %15, align 8, !tbaa !30
  %165 = load ptr, ptr %20, align 8, !tbaa !30
  %166 = load ptr, ptr %11, align 8, !tbaa !35
  %167 = call i32 @BN_nnmod(ptr noundef %163, ptr noundef %164, ptr noundef %165, ptr noundef %166)
  %168 = icmp ne i32 %167, 0
  br i1 %168, label %170, label %169

169:                                              ; preds = %162
  call void @ERR_put_error(i32 noundef 26, i32 noundef 0, i32 noundef 3, ptr noundef @.str, i32 noundef 211)
  br label %178

170:                                              ; preds = %162
  %171 = load ptr, ptr %12, align 8, !tbaa !30
  %172 = load ptr, ptr %8, align 8, !tbaa !31
  %173 = getelementptr inbounds nuw %struct.ecdsa_sig_st, ptr %172, i32 0, i32 0
  %174 = load ptr, ptr %173, align 8, !tbaa !37
  %175 = call i32 @BN_ucmp(ptr noundef %171, ptr noundef %174)
  %176 = icmp eq i32 %175, 0
  %177 = zext i1 %176 to i32
  store i32 %177, ptr %10, align 4, !tbaa !6
  br label %178

178:                                              ; preds = %170, %169, %161, %153, %143, %137, %126, %117, %109, %99, %58
  %179 = load ptr, ptr %11, align 8, !tbaa !35
  call void @BN_CTX_end(ptr noundef %179)
  %180 = load ptr, ptr %11, align 8, !tbaa !35
  call void @BN_CTX_free(ptr noundef %180)
  %181 = load ptr, ptr %16, align 8, !tbaa !33
  call void @EC_POINT_free(ptr noundef %181)
  %182 = load i32, ptr %10, align 4, !tbaa !6
  store i32 %182, ptr %5, align 4
  store i32 1, ptr %19, align 4
  br label %183

183:                                              ; preds = %178, %36, %31
  call void @llvm.lifetime.end.p0(i64 8, ptr %18) #5
  call void @llvm.lifetime.end.p0(i64 8, ptr %17) #5
  call void @llvm.lifetime.end.p0(i64 8, ptr %16) #5
  call void @llvm.lifetime.end.p0(i64 8, ptr %15) #5
  call void @llvm.lifetime.end.p0(i64 8, ptr %14) #5
  call void @llvm.lifetime.end.p0(i64 8, ptr %13) #5
  call void @llvm.lifetime.end.p0(i64 8, ptr %12) #5
  call void @llvm.lifetime.end.p0(i64 8, ptr %11) #5
  call void @llvm.lifetime.end.p0(i64 4, ptr %10) #5
  %184 = load i32, ptr %5, align 4
  ret i32 %184
}