; Function Attrs: nounwind uwtable
define hidden range(i32 0, 2) i32 @ECDSA_do_verify(ptr noundef %0, i64 noundef %1, ptr noundef readonly captures(address_is_null) %2, ptr noundef %3) local_unnamed_addr #0 {
  %5 = tail call ptr @EC_KEY_get0_group(ptr noundef %3) #5
  %6 = icmp eq ptr %5, null
  br i1 %6, label %11, label %7

7:                                                ; preds = %4
  %8 = tail call ptr @EC_KEY_get0_public_key(ptr noundef %3) #5
  %9 = icmp eq ptr %8, null
  %10 = icmp eq ptr %2, null
  %or.cond = or i1 %10, %9
  br i1 %or.cond, label %11, label %12

11:                                               ; preds = %7, %4
  tail call void @ERR_put_error(i32 noundef 26, i32 noundef 0, i32 noundef 101, ptr noundef nonnull @.str, i32 noundef 151) #5
  br label %80

12:                                               ; preds = %7
  %13 = tail call ptr @BN_CTX_new() #5
  %.not = icmp eq ptr %13, null
  br i1 %.not, label %14, label %15

14:                                               ; preds = %12
  tail call void @ERR_put_error(i32 noundef 26, i32 noundef 0, i32 noundef 65, ptr noundef nonnull @.str, i32 noundef 157) #5
  br label %80

15:                                               ; preds = %12
  tail call void @BN_CTX_start(ptr noundef nonnull %13) #5
  %16 = tail call ptr @BN_CTX_get(ptr noundef nonnull %13) #5
  %17 = tail call ptr @BN_CTX_get(ptr noundef nonnull %13) #5
  %18 = tail call ptr @BN_CTX_get(ptr noundef nonnull %13) #5
  %19 = tail call ptr @BN_CTX_get(ptr noundef nonnull %13) #5
  %20 = icmp eq ptr %16, null
  %21 = icmp eq ptr %17, null
  %or.cond3 = select i1 %20, i1 true, i1 %21
  %22 = icmp eq ptr %18, null
  %or.cond5 = select i1 %or.cond3, i1 true, i1 %22
  %23 = icmp eq ptr %19, null
  %or.cond7 = select i1 %or.cond5, i1 true, i1 %23
  br i1 %or.cond7, label %24, label %25

24:                                               ; preds = %15
  tail call void @ERR_put_error(i32 noundef 26, i32 noundef 0, i32 noundef 3, ptr noundef nonnull @.str, i32 noundef 166) #5
  br label %79

25:                                               ; preds = %15
  %26 = tail call ptr @EC_GROUP_get0_order(ptr noundef nonnull %5) #5
  %27 = load ptr, ptr %2, align 8, !tbaa !26
  %28 = tail call i32 @BN_is_zero(ptr noundef %27) #5
  %.not80 = icmp eq i32 %28, 0
  br i1 %.not80, label %29, label %47

29:                                               ; preds = %25
  %30 = load ptr, ptr %2, align 8, !tbaa !26
  %31 = tail call i32 @BN_is_negative(ptr noundef %30) #5
  %.not81 = icmp eq i32 %31, 0
  br i1 %.not81, label %32, label %47

32:                                               ; preds = %29
  %33 = load ptr, ptr %2, align 8, !tbaa !26
  %34 = tail call i32 @BN_ucmp(ptr noundef %33, ptr noundef %26) #5
  %35 = icmp sgt i32 %34, -1
  br i1 %35, label %47, label %36

36:                                               ; preds = %32
  %37 = getelementptr inbounds nuw i8, ptr %2, i64 8
  %38 = load ptr, ptr %37, align 8, !tbaa !28
  %39 = tail call i32 @BN_is_zero(ptr noundef %38) #5
  %.not82 = icmp eq i32 %39, 0
  br i1 %.not82, label %40, label %47

40:                                               ; preds = %36
  %41 = load ptr, ptr %37, align 8, !tbaa !28
  %42 = tail call i32 @BN_is_negative(ptr noundef %41) #5
  %.not83 = icmp eq i32 %42, 0
  br i1 %.not83, label %43, label %47

43:                                               ; preds = %40
  %44 = load ptr, ptr %37, align 8, !tbaa !28
  %45 = tail call i32 @BN_ucmp(ptr noundef %44, ptr noundef %26) #5
  %46 = icmp sgt i32 %45, -1
  br i1 %46, label %47, label %48

47:                                               ; preds = %43, %40, %36, %32, %29, %25
  tail call void @ERR_put_error(i32 noundef 26, i32 noundef 0, i32 noundef 100, ptr noundef nonnull @.str, i32 noundef 174) #5
  br label %79

48:                                               ; preds = %43
  %49 = load ptr, ptr %37, align 8, !tbaa !28
  %50 = tail call ptr @BN_mod_inverse(ptr noundef nonnull %17, ptr noundef %49, ptr noundef %26, ptr noundef nonnull %13) #5
  %.not84 = icmp eq ptr %50, null
  br i1 %.not84, label %51, label %52

51:                                               ; preds = %48
  tail call void @ERR_put_error(i32 noundef 26, i32 noundef 0, i32 noundef 3, ptr noundef nonnull @.str, i32 noundef 180) #5
  br label %79

52:                                               ; preds = %48
  %53 = tail call fastcc i32 @digest_to_bn(ptr noundef %18, ptr noundef %0, i64 noundef %1, ptr noundef %26)
  %.not85 = icmp eq i32 %53, 0
  br i1 %.not85, label %79, label %54

54:                                               ; preds = %52
  %55 = tail call i32 @BN_mod_mul(ptr noundef nonnull %16, ptr noundef nonnull %18, ptr noundef nonnull %17, ptr noundef %26, ptr noundef nonnull %13) #5
  %.not86 = icmp eq i32 %55, 0
  br i1 %.not86, label %56, label %57

56:                                               ; preds = %54
  tail call void @ERR_put_error(i32 noundef 26, i32 noundef 0, i32 noundef 3, ptr noundef nonnull @.str, i32 noundef 188) #5
  br label %79

57:                                               ; preds = %54
  %58 = load ptr, ptr %2, align 8, !tbaa !26
  %59 = tail call i32 @BN_mod_mul(ptr noundef nonnull %17, ptr noundef %58, ptr noundef nonnull %17, ptr noundef %26, ptr noundef nonnull %13) #5
  %.not87 = icmp eq i32 %59, 0
  br i1 %.not87, label %60, label %61

60:                                               ; preds = %57
  tail call void @ERR_put_error(i32 noundef 26, i32 noundef 0, i32 noundef 3, ptr noundef nonnull @.str, i32 noundef 193) #5
  br label %79

61:                                               ; preds = %57
  %62 = tail call ptr @EC_POINT_new(ptr noundef nonnull %5) #5
  %63 = icmp eq ptr %62, null
  br i1 %63, label %64, label %65

64:                                               ; preds = %61
  tail call void @ERR_put_error(i32 noundef 26, i32 noundef 0, i32 noundef 65, ptr noundef nonnull @.str, i32 noundef 199) #5
  br label %79

65:                                               ; preds = %61
  %66 = tail call i32 @EC_POINT_mul(ptr noundef nonnull %5, ptr noundef nonnull %62, ptr noundef nonnull %16, ptr noundef nonnull %8, ptr noundef nonnull %17, ptr noundef nonnull %13) #5
  %.not88 = icmp eq i32 %66, 0
  br i1 %.not88, label %67, label %68

67:                                               ; preds = %65
  tail call void @ERR_put_error(i32 noundef 26, i32 noundef 0, i32 noundef 15, ptr noundef nonnull @.str, i32 noundef 203) #5
  br label %79

68:                                               ; preds = %65
  %69 = tail call i32 @EC_POINT_get_affine_coordinates_GFp(ptr noundef nonnull %5, ptr noundef nonnull %62, ptr noundef nonnull %19, ptr noundef null, ptr noundef nonnull %13) #5
  %.not89 = icmp eq i32 %69, 0
  br i1 %.not89, label %70, label %71

70:                                               ; preds = %68
  tail call void @ERR_put_error(i32 noundef 26, i32 noundef 0, i32 noundef 15, ptr noundef nonnull @.str, i32 noundef 207) #5
  br label %79

71:                                               ; preds = %68
  %72 = tail call i32 @BN_nnmod(ptr noundef nonnull %16, ptr noundef nonnull %19, ptr noundef %26, ptr noundef nonnull %13) #5
  %.not90 = icmp eq i32 %72, 0
  br i1 %.not90, label %73, label %74

73:                                               ; preds = %71
  tail call void @ERR_put_error(i32 noundef 26, i32 noundef 0, i32 noundef 3, ptr noundef nonnull @.str, i32 noundef 211) #5
  br label %79

74:                                               ; preds = %71
  %75 = load ptr, ptr %2, align 8, !tbaa !26
  %76 = tail call i32 @BN_ucmp(ptr noundef nonnull %16, ptr noundef %75) #5
  %77 = icmp eq i32 %76, 0
  %78 = zext i1 %77 to i32
  br label %79

79:                                               ; preds = %52, %74, %73, %70, %67, %64, %60, %56, %51, %47, %24
  %.070 = phi ptr [ null, %24 ], [ null, %47 ], [ null, %64 ], [ %62, %74 ], [ %62, %73 ], [ %62, %70 ], [ %62, %67 ], [ null, %60 ], [ null, %56 ], [ null, %52 ], [ null, %51 ]
  %.069 = phi i32 [ 0, %24 ], [ 0, %47 ], [ 0, %64 ], [ %78, %74 ], [ 0, %73 ], [ 0, %70 ], [ 0, %67 ], [ 0, %60 ], [ 0, %56 ], [ 0, %52 ], [ 0, %51 ]
  tail call void @BN_CTX_end(ptr noundef nonnull %13) #5
  tail call void @BN_CTX_free(ptr noundef nonnull %13) #5
  tail call void @EC_POINT_free(ptr noundef %.070) #5
  br label %80

80:                                               ; preds = %79, %14, %11
  %.0 = phi i32 [ 0, %11 ], [ %.069, %79 ], [ 0, %14 ]
  ret i32 %.0
}